; Function Attrs: nounwind uwtable
define ptr @l___private_Lake_Util_Name_0__Lean_Name_isAnonymous_match__1_splitter___rarg___boxed(ptr noundef %0, ptr noundef %1, ptr noundef %2) #0 {
  %4 = ptrtoint ptr %0 to i64
  %5 = and i64 %4, 1
  %.not.i8.i = icmp eq i64 %5, 0
  br i1 %.not.i8.i, label %9, label %6

6:                                                ; preds = %3
  %7 = lshr i64 %4, 1
  %8 = trunc i64 %7 to i32
  br label %lean_obj_tag.exit.i

9:                                                ; preds = %3
  %10 = getelementptr i8, ptr %0, i64 4
  %.val.i.i = load i32, ptr %10, align 4
  %11 = lshr i32 %.val.i.i, 24
  br label %lean_obj_tag.exit.i

lean_obj_tag.exit.i:                              ; preds = %9, %6
  %.0.i.i = phi i32 [ %8, %6 ], [ %11, %9 ]
  %12 = icmp eq i32 %.0.i.i, 0
  br i1 %12, label %13, label %l___private_Lake_Util_Name_0__Lean_Name_isAnonymous_match__1_splitter___rarg.exit

13:                                               ; preds = %lean_obj_tag.exit.i
  %14 = ptrtoint ptr %2 to i64
  %15 = and i64 %14, 1
  %.not.i5 = icmp eq i64 %15, 0
  br i1 %.not.i5, label %16, label %lean_dec.exit.i

16:                                               ; preds = %13
  %17 = load i32, ptr %2, align 4, !tbaa !4
  %18 = icmp sgt i32 %17, 1
  br i1 %18, label %19, label %21, !prof !9

19:                                               ; preds = %16
  %20 = add nsw i32 %17, -1
  store i32 %20, ptr %2, align 4, !tbaa !4
  br label %lean_dec.exit.i

21:                                               ; preds = %16
  %.not.i.i = icmp eq i32 %17, 0
  br i1 %.not.i.i, label %lean_dec.exit.i, label %22

22:                                               ; preds = %21
  tail call void @lean_dec_ref_cold(ptr noundef nonnull %2) #5
  br label %lean_dec.exit.i

lean_dec.exit.i:                                  ; preds = %22, %21, %19, %13
  %23 = ptrtoint ptr %1 to i64
  %24 = and i64 %23, 1
  %.not11.i = icmp eq i64 %24, 0
  br i1 %.not11.i, label %25, label %lean_dec.exit

25:                                               ; preds = %lean_dec.exit.i
  %.val.i9.i = load i32, ptr %1, align 4, !tbaa !4
  %26 = icmp sgt i32 %.val.i9.i, 0
  br i1 %26, label %27, label %29, !prof !9

27:                                               ; preds = %25
  %28 = add nuw i32 %.val.i9.i, 1
  store i32 %28, ptr %1, align 4, !tbaa !4
  br label %l___private_Lake_Util_Name_0__Lean_Name_isAnonymous_match__1_splitter___rarg.exit.thread

29:                                               ; preds = %25
  %.not.i10.i = icmp eq i32 %.val.i9.i, 0
  br i1 %.not.i10.i, label %lean_dec.exit, label %30

30:                                               ; preds = %29
  tail call void @lean_inc_ref_cold(ptr noundef nonnull %1) #5
  br label %l___private_Lake_Util_Name_0__Lean_Name_isAnonymous_match__1_splitter___rarg.exit.threadthread-pre-split

l___private_Lake_Util_Name_0__Lean_Name_isAnonymous_match__1_splitter___rarg.exit: ; preds = %lean_obj_tag.exit.i
  %31 = tail call ptr @lean_apply_2(ptr noundef %2, ptr noundef %0, ptr noundef nonnull inttoptr (i64 1 to ptr)) #5
  %.pre = ptrtoint ptr %1 to i64
  %.pre6 = and i64 %.pre, 1
  %32 = icmp eq i64 %.pre6, 0
  br i1 %32, label %l___private_Lake_Util_Name_0__Lean_Name_isAnonymous_match__1_splitter___rarg.exit.threadthread-pre-split, label %lean_dec.exit

l___private_Lake_Util_Name_0__Lean_Name_isAnonymous_match__1_splitter___rarg.exit.threadthread-pre-split: ; preds = %l___private_Lake_Util_Name_0__Lean_Name_isAnonymous_match__1_splitter___rarg.exit, %30
  %.0.i11.ph = phi ptr [ %1, %30 ], [ %31, %l___private_Lake_Util_Name_0__Lean_Name_isAnonymous_match__1_splitter___rarg.exit ]
  %.pr = load i32, ptr %1, align 4, !tbaa !4
  br label %l___private_Lake_Util_Name_0__Lean_Name_isAnonymous_match__1_splitter___rarg.exit.thread

l___private_Lake_Util_Name_0__Lean_Name_isAnonymous_match__1_splitter___rarg.exit.thread: ; preds = %l___private_Lake_Util_Name_0__Lean_Name_isAnonymous_match__1_splitter___rarg.exit.threadthread-pre-split, %27
  %33 = phi i32 [ %.pr, %l___private_Lake_Util_Name_0__Lean_Name_isAnonymous_match__1_splitter___rarg.exit.threadthread-pre-split ], [ %28, %27 ]
  %.0.i11 = phi ptr [ %.0.i11.ph, %l___private_Lake_Util_Name_0__Lean_Name_isAnonymous_match__1_splitter___rarg.exit.threadthread-pre-split ], [ %1, %27 ]
  %34 = icmp sgt i32 %33, 1
  br i1 %34, label %35, label %37, !prof !14

35:                                               ; preds = %l___private_Lake_Util_Name_0__Lean_Name_isAnonymous_match__1_splitter___rarg.exit.thread
  %36 = add nsw i32 %33, -1
  store i32 %36, ptr %1, align 4, !tbaa !4
  br label %lean_dec.exit

37:                                               ; preds = %l___private_Lake_Util_Name_0__Lean_Name_isAnonymous_match__1_splitter___rarg.exit.thread
  %.not.i = icmp eq i32 %33, 0
  br i1 %.not.i, label %lean_dec.exit, label %38

38:                                               ; preds = %37
  tail call void @lean_dec_ref_cold(ptr noundef nonnull %1) #5
  br label %lean_dec.exit

lean_dec.exit:                                    ; preds = %29, %lean_dec.exit.i, %38, %37, %35, %l___private_Lake_Util_Name_0__Lean_Name_isAnonymous_match__1_splitter___rarg.exit
  %.0.i10 = phi ptr [ %.0.i11, %38 ], [ %.0.i11, %37 ], [ %.0.i11, %35 ], [ %31, %l___private_Lake_Util_Name_0__Lean_Name_isAnonymous_match__1_splitter___rarg.exit ], [ %1, %lean_dec.exit.i ], [ %1, %29 ]
  ret ptr %.0.i10
}